; Function Attrs: nounwind uwtable
define internal range(i32 0, 2) i32 @check_stream_13(ptr noundef readonly captures(none) %0) #0 {
  %2 = getelementptr inbounds nuw i8, ptr %0, i64 1128
  %3 = load i64, ptr %2, align 8, !tbaa !64
  %4 = tail call i32 @test_uint64_t_eq(ptr noundef nonnull @.str.2, i32 noundef 1056, ptr noundef nonnull @.str.151, ptr noundef nonnull @.str.147, i64 noundef %3, i64 noundef 42) #8
  %.not = icmp eq i32 %4, 0
  br i1 %.not, label %13, label %5

5:                                                ; preds = %1
  %6 = getelementptr inbounds nuw i8, ptr %0, i64 1136
  %7 = load i64, ptr %6, align 8, !tbaa !64
  %8 = tail call i32 @test_uint64_t_eq(ptr noundef nonnull @.str.2, i32 noundef 1057, ptr noundef nonnull @.str.152, ptr noundef nonnull @.str.149, i64 noundef %7, i64 noundef 4568) #8
  %.not3 = icmp eq i32 %8, 0
  br i1 %.not3, label %13, label %9

9:                                                ; preds = %5
  %10 = getelementptr inbounds nuw i8, ptr %0, i64 1144
  %11 = load i64, ptr %10, align 8, !tbaa !64
  %12 = tail call i32 @test_uint64_t_eq(ptr noundef nonnull @.str.2, i32 noundef 1058, ptr noundef nonnull @.str.153, ptr noundef nonnull @.str.5, i64 noundef %11, i64 noundef 0) #8
  %.not4 = icmp ne i32 %12, 0
  %spec.select = zext i1 %.not4 to i32
  br label %13

13:                                               ; preds = %9, %1, %5
  %.0 = phi i32 [ 0, %5 ], [ 0, %1 ], [ %spec.select, %9 ]
  ret i32 %.0
}